target datalayout = "e-m:e-p270:32:32-p271:32:32-p272:64:64-i64:64-i128:128-f80:128-n8:16:32:64-S128"
target triple = "x86_64-pc-linux-gnu"

%struct.slurm_conf_t = type { i64, ptr, i16, ptr, ptr, ptr, ptr, ptr, i16, ptr, ptr, ptr, ptr, ptr, ptr, ptr, i16, ptr, ptr, ptr, ptr, i16, ptr, ptr, ptr, i64, ptr, ptr, ptr, ptr, i16, ptr, ptr, i16, i32, ptr, i32, ptr, i32, i32, ptr, ptr, i64, i64, ptr, i16, i16, ptr, i32, i32, ptr, i32, ptr, i32, i16, i16, i16, ptr, i16, i16, ptr, ptr, i32, i16, i16, ptr, i32, i16, ptr, ptr, ptr, ptr, i16, ptr, ptr, ptr, ptr, i32, ptr, ptr, ptr, ptr, i16, i16, ptr, i32, i32, i32, i16, i16, ptr, ptr, i16, ptr, ptr, i32, i32, i32, i32, i32, i64, i32, i32, i16, ptr, ptr, i32, ptr, ptr, ptr, i16, i32, ptr, ptr, i16, ptr, ptr, i32, i16, ptr, ptr, ptr, ptr, i32, i32, i16, i16, i32, ptr, i16, ptr, i32, i32, i32, i32, i32, i32, ptr, i16, ptr, ptr, i32, i16, ptr, i32, i16, i16, ptr, ptr, ptr, i16, ptr, ptr, ptr, ptr, i16, i16, ptr, i16, ptr, i16, ptr, i16, ptr, i16, ptr, ptr, ptr, ptr, i16, ptr, ptr, ptr, i32, ptr, i32, ptr, ptr, i16, ptr, ptr, i32, i16, ptr, ptr, i16, i16, ptr, i16, ptr, ptr, ptr, i32, ptr, i16, i16, ptr, ptr, ptr, ptr, ptr, ptr, ptr, ptr, i16, i32, i16, ptr, ptr, ptr, ptr, i32, ptr, ptr, ptr, i16, ptr, ptr, ptr, i16, ptr, i16, ptr, i16, i16, ptr }
%struct.auth_credential_t = type { i32, i32, ptr, i8, %struct.in_addr, i8, i32, i32, ptr, i32 }
%struct.in_addr = type { i32 }

@plugin_type = dso_local constant [11 x i8] c"auth/munge\00", align 1
@.str = private unnamed_addr constant [27 x i8] c"SLURM_MUNGE_AUTH_FAIL_TEST\00", align 1
@bad_cred_test = internal global i32 -1, align 4
@slurm_conf = external global %struct.slurm_conf_t, align 8
@.str.1 = private unnamed_addr constant [34 x i8] c"Failed to create MUNGE Credential\00", align 1
@.str.2 = private unnamed_addr constant [43 x i8] c"MUNGE allows root to decode any credential\00", align 1
@.str.3 = private unnamed_addr constant [15 x i8] c"%s: %s: loaded\00", align 1
@__func__.init = private unnamed_addr constant [5 x i8] c"init\00", align 1

; Function Attrs: nounwind uwtable
define dso_local void @auth_p_destroy(ptr noundef %0) #0 {
  %2 = alloca ptr, align 8
  store ptr %0, ptr %2, align 8
  %3 = load ptr, ptr %2, align 8
  %4 = icmp ne ptr %3, null
  br i1 %4, label %6, label %5

5:                                                ; preds = %1
  br label %34

6:                                                ; preds = %1
  %7 = load ptr, ptr %2, align 8
  %8 = getelementptr inbounds nuw %struct.auth_credential_t, ptr %7, i32 0, i32 3
  %9 = load i8, ptr %8, align 8, !range !8, !noundef !9
  %10 = trunc i8 %9 to i1
  br i1 %10, label %11, label %14

11:                                               ; preds = %6
  %12 = load ptr, ptr %2, align 8
  %13 = getelementptr inbounds nuw %struct.auth_credential_t, ptr %12, i32 0, i32 2
  call void @slurm_xfree(ptr noundef %13)
  br label %24

14:                                               ; preds = %6
  %15 = load ptr, ptr %2, align 8
  %16 = getelementptr inbounds nuw %struct.auth_credential_t, ptr %15, i32 0, i32 2
  %17 = load ptr, ptr %16, align 8
  %18 = icmp ne ptr %17, null
  br i1 %18, label %19, label %23

19:                                               ; preds = %14
  %20 = load ptr, ptr %2, align 8
  %21 = getelementptr inbounds nuw %struct.auth_credential_t, ptr %20, i32 0, i32 2
  %22 = load ptr, ptr %21, align 8
  call void @free(ptr noundef %22) #9
  br label %23

23:                                               ; preds = %19, %14
  br label %24

24:                                               ; preds = %23, %11
  %25 = load ptr, ptr %2, align 8
  %26 = getelementptr inbounds nuw %struct.auth_credential_t, ptr %25, i32 0, i32 8
  %27 = load ptr, ptr %26, align 8
  %28 = icmp ne ptr %27, null
  br i1 %28, label %29, label %33

29:                                               ; preds = %24
  %30 = load ptr, ptr %2, align 8
  %31 = getelementptr inbounds nuw %struct.auth_credential_t, ptr %30, i32 0, i32 8
  %32 = load ptr, ptr %31, align 8
  call void @free(ptr noundef %32) #9
  br label %33

33:                                               ; preds = %29, %24
  call void @slurm_xfree(ptr noundef %2)
  br label %34

34:                                               ; preds = %33, %5
  ret void
}

; Function Attrs: inlinehint nounwind willreturn memory(read) uwtable
define available_externally i32 @atoi(ptr noundef nonnull %0) #3 {
  %2 = alloca ptr, align 8
  store ptr %0, ptr %2, align 8
  %3 = load ptr, ptr %2, align 8
  %4 = call i64 @strtol(ptr noundef %3, ptr noundef null, i32 noundef 10) #9
  %5 = trunc i64 %4 to i32
  ret i32 %5
}

; Function Attrs: nounwind uwtable
define dso_local i32 @init() #0 {
  %1 = alloca i32, align 4
  %2 = alloca ptr, align 8
  %3 = alloca ptr, align 8
  %4 = alloca ptr, align 8
  %5 = alloca i32, align 4
  call void @llvm.lifetime.start.p0(i64 4, ptr %1) #9
  store i32 0, ptr %1, align 4
  call void @llvm.lifetime.start.p0(i64 8, ptr %2) #9
  %6 = call ptr @getenv(ptr noundef @.str) #9
  store ptr %6, ptr %2, align 8
  %7 = load ptr, ptr %2, align 8
  %8 = icmp ne ptr %7, null
  br i1 %8, label %9, label %12

9:                                                ; preds = %0
  %10 = load ptr, ptr %2, align 8
  %11 = call i32 @atoi(ptr noundef %10) #10
  store i32 %11, ptr @bad_cred_test, align 4
  br label %13

12:                                               ; preds = %0
  store i32 0, ptr @bad_cred_test, align 4
  br label %13

13:                                               ; preds = %12, %9
  %14 = call zeroext i1 @slurm_running_in_slurmstepd()
  br i1 %14, label %39, label %15

15:                                               ; preds = %13
  %16 = call zeroext i1 @slurm_running_in_daemon()
  br i1 %16, label %17, label %39

17:                                               ; preds = %15
  call void @llvm.lifetime.start.p0(i64 8, ptr %3) #9
  store ptr null, ptr %3, align 8
  call void @llvm.lifetime.start.p0(i64 8, ptr %4) #9
  %18 = load ptr, ptr getelementptr inbounds nuw (%struct.slurm_conf_t, ptr @slurm_conf, i32 0, i32 18), align 8
  %19 = call ptr @slurm_auth_opts_to_socket(ptr noundef %18)
  store ptr %19, ptr %4, align 8
  call void @llvm.lifetime.start.p0(i64 4, ptr %5) #9
  %20 = call i32 @getuid() #9
  %21 = add i32 %20, 1
  store i32 %21, ptr %5, align 4
  %22 = load ptr, ptr getelementptr inbounds nuw (%struct.slurm_conf_t, ptr @slurm_conf, i32 0, i32 18), align 8
  %23 = load i32, ptr %5, align 4
  %24 = call ptr @auth_p_create(ptr noundef %22, i32 noundef %23, ptr noundef null, i32 noundef 0)
  store ptr %24, ptr %3, align 8
  %25 = load ptr, ptr %3, align 8
  %26 = icmp ne ptr %25, null
  br i1 %26, label %29, label %27

27:                                               ; preds = %17
  %28 = call i32 (ptr, ...) @slurm_error(ptr noundef @.str.1)
  store i32 -1, ptr %1, align 4
  br label %37

29:                                               ; preds = %17
  %30 = load ptr, ptr %3, align 8
  %31 = load ptr, ptr %4, align 8
  %32 = call i32 @_decode_cred(ptr noundef %30, ptr noundef %31, i1 noundef zeroext true)
  %33 = icmp ne i32 %32, 0
  br i1 %33, label %36, label %34

34:                                               ; preds = %29
  %35 = call i32 (ptr, ...) @slurm_error(ptr noundef @.str.2)
  store i32 -1, ptr %1, align 4
  br label %36

36:                                               ; preds = %34, %29
  br label %37

37:                                               ; preds = %36, %27
  call void @slurm_xfree(ptr noundef %4)
  %38 = load ptr, ptr %3, align 8
  call void @auth_p_destroy(ptr noundef %38)
  call void @llvm.lifetime.end.p0(i64 4, ptr %5) #9
  call void @llvm.lifetime.end.p0(i64 8, ptr %4) #9
  call void @llvm.lifetime.end.p0(i64 8, ptr %3) #9
  br label %39

39:                                               ; preds = %37, %15, %13
  br label %40

40:                                               ; preds = %39
  br label %41

41:                                               ; preds = %40
  %42 = call i32 @slurm_get_log_level()
  %43 = icmp sge i32 %42, 5
  br i1 %43, label %44, label %45

44:                                               ; preds = %41
  call void (i32, ptr, ...) @slurm_log_var(i32 noundef 5, ptr noundef @.str.3, ptr noundef @plugin_type, ptr noundef @__func__.init)
  br label %45

45:                                               ; preds = %44, %41
  br label %46

46:                                               ; preds = %45
  br label %47

47:                                               ; preds = %46
  br label %48

48:                                               ; preds = %47
  br label %49

49:                                               ; preds = %48
  %50 = load i32, ptr %1, align 4
  call void @llvm.lifetime.end.p0(i64 8, ptr %2) #9
  call void @llvm.lifetime.end.p0(i64 4, ptr %1) #9
  ret i32 %50
}