; Function Attrs: nounwind uwtable
define dso_local range(i32 -1, 1) i32 @init() local_unnamed_addr #0 {
  %1 = alloca ptr, align 8
  %2 = alloca ptr, align 8
  %3 = tail call ptr @getenv(ptr noundef nonnull @.str) #13
  %.not = icmp eq ptr %3, null
  br i1 %.not, label %7, label %4

4:                                                ; preds = %0
  %5 = tail call i64 @strtol(ptr noundef nonnull captures(none) %3, ptr noundef null, i32 noundef 10) #13
  %6 = trunc i64 %5 to i32
  br label %7

7:                                                ; preds = %0, %4
  %storemerge = phi i32 [ %6, %4 ], [ 0, %0 ]
  store i32 %storemerge, ptr @bad_cred_test, align 4
  %8 = tail call zeroext i1 @slurm_running_in_slurmstepd() #13
  br i1 %8, label %38, label %9

9:                                                ; preds = %7
  %10 = tail call zeroext i1 @slurm_running_in_daemon() #13
  br i1 %10, label %11, label %38

11:                                               ; preds = %9
  call void @llvm.lifetime.start.p0(i64 8, ptr nonnull %2) #13
  %12 = load ptr, ptr getelementptr inbounds nuw (i8, ptr @slurm_conf, i64 144), align 8
  %13 = tail call ptr @slurm_auth_opts_to_socket(ptr noundef %12) #13
  store ptr %13, ptr %2, align 8
  %14 = tail call i32 @getuid() #13
  %15 = add i32 %14, 1
  %16 = load ptr, ptr getelementptr inbounds nuw (i8, ptr @slurm_conf, i64 144), align 8
  %17 = tail call ptr @auth_p_create(ptr noundef %16, i32 noundef %15, ptr noundef null, i32 noundef 0)
  %.not8 = icmp eq ptr %17, null
  br i1 %.not8, label %22, label %18

18:                                               ; preds = %11
  %19 = tail call fastcc i32 @_decode_cred(ptr noundef %17, ptr noundef %13, i1 noundef zeroext true)
  %.not9 = icmp eq i32 %19, 0
  br i1 %.not9, label %20, label %24

20:                                               ; preds = %18
  %21 = tail call i32 (ptr, ...) @slurm_error(ptr noundef nonnull @.str.2) #13
  br label %24

22:                                               ; preds = %11
  %23 = tail call i32 (ptr, ...) @slurm_error(ptr noundef nonnull @.str.1) #13
  call void @slurm_xfree(ptr noundef nonnull %2) #13
  call void @llvm.lifetime.start.p0(i64 8, ptr nonnull %1)
  br label %auth_p_destroy.exit

24:                                               ; preds = %18, %20
  %.0.ph = phi i32 [ -1, %20 ], [ 0, %18 ]
  call void @slurm_xfree(ptr noundef nonnull %2) #13
  call void @llvm.lifetime.start.p0(i64 8, ptr nonnull %1)
  store ptr %17, ptr %1, align 8
  %25 = getelementptr inbounds nuw i8, ptr %17, i64 16
  %26 = load i8, ptr %25, align 8, !range !8, !noundef !9
  %27 = trunc nuw i8 %26 to i1
  %28 = getelementptr inbounds nuw i8, ptr %17, i64 8
  br i1 %27, label %29, label %30

29:                                               ; preds = %24
  call void @slurm_xfree(ptr noundef nonnull %28) #13
  br label %33

30:                                               ; preds = %24
  %31 = load ptr, ptr %28, align 8
  %.not3.i = icmp eq ptr %31, null
  br i1 %.not3.i, label %33, label %32

32:                                               ; preds = %30
  call void @free(ptr noundef nonnull %31) #13
  br label %33

33:                                               ; preds = %32, %30, %29
  %34 = getelementptr inbounds nuw i8, ptr %17, i64 40
  %35 = load ptr, ptr %34, align 8
  %.not4.i = icmp eq ptr %35, null
  br i1 %.not4.i, label %37, label %36

36:                                               ; preds = %33
  call void @free(ptr noundef nonnull %35) #13
  br label %37

37:                                               ; preds = %36, %33
  call void @slurm_xfree(ptr noundef nonnull %1) #13
  br label %auth_p_destroy.exit

auth_p_destroy.exit:                              ; preds = %22, %37
  %.012 = phi i32 [ -1, %22 ], [ %.0.ph, %37 ]
  call void @llvm.lifetime.end.p0(i64 8, ptr nonnull %1)
  call void @llvm.lifetime.end.p0(i64 8, ptr nonnull %2) #13
  br label %38

38:                                               ; preds = %auth_p_destroy.exit, %9, %7
  %.1 = phi i32 [ 0, %7 ], [ %.012, %auth_p_destroy.exit ], [ 0, %9 ]
  %39 = call i32 @slurm_get_log_level() #13
  %40 = icmp sgt i32 %39, 4
  br i1 %40, label %41, label %42

41:                                               ; preds = %38
  call void (i32, ptr, ...) @slurm_log_var(i32 noundef 5, ptr noundef nonnull @.str.3, ptr noundef nonnull @plugin_type, ptr noundef nonnull @__func__.init) #13
  br label %42

42:                                               ; preds = %41, %38
  ret i32 %.1
}